; Function Attrs: mustprogress nounwind uwtable
define dso_local void @_ZN14UnrollStatefulD2Ev(ptr nocapture noundef nonnull readonly align 8 dereferenceable(8) %0) unnamed_addr #6 align 2 {
  %2 = load ptr, ptr %0, align 8
  %3 = icmp eq ptr %2, null
  br i1 %3, label %5, label %4

4:                                                ; preds = %1
  tail call void @_ZN13UnrollVisitorD2Ev(ptr noundef nonnull align 8 dereferenceable(120) %2) #20
  tail call void @_ZdlPv(ptr noundef nonnull %2) #19
  br label %5

5:                                                ; preds = %4, %1
  ret void
}